; ModuleID = 'bench/linux/original/xfrm_hash.ll'
source_filename = "bench/linux/original/xfrm_hash.ll"
target datalayout = "e-m:e-p270:32:32-p271:32:32-p272:64:64-i64:64-i128:128-f80:128-n8:16:32:64-S128"
target triple = "x86_64-unknown-linux-gnu"

@hashdist = external dso_local local_unnamed_addr global i32, align 4

; Function Attrs: fn_ret_thunk_extern nounwind null_pointer_is_valid
define dso_local ptr @xfrm_hash_alloc(i32 noundef %0) local_unnamed_addr #0 align 16 {
  %2 = zext i32 %0 to i64
  %3 = icmp ult i32 %0, 4097
  br i1 %3, label %4, label %6

4:                                                ; preds = %1
  %5 = tail call noalias align 8 ptr @__kmalloc(i64 noundef %2, i32 noundef 3520) #3
  br label %18

6:                                                ; preds = %1
  %7 = load i32, ptr @hashdist, align 4
  %8 = icmp eq i32 %7, 0
  br i1 %8, label %11, label %9

9:                                                ; preds = %6
  %10 = tail call noalias ptr @vzalloc(i64 noundef %2) #3
  br label %18

11:                                               ; preds = %6
  %12 = add nsw i64 %2, -1
  %13 = lshr i64 %12, 12
  %14 = tail call i32 asm "bsrq $1,${0:q}", "=r,rm,0,~{dirflag},~{fpsr},~{flags}"(i64 %13, i32 -1) #4, !srcloc !5
  %15 = add i32 %14, 1
  %16 = tail call i64 @__get_free_pages(i32 noundef 11712, i32 noundef %15) #5
  %17 = inttoptr i64 %16 to ptr
  br label %18

18:                                               ; preds = %11, %9, %4
  %19 = phi ptr [ %10, %9 ], [ %17, %11 ], [ %5, %4 ]
  ret ptr %19
}

; Function Attrs: null_pointer_is_valid allocsize(0)
declare dso_local noalias ptr @vzalloc(i64 noundef) local_unnamed_addr #1

; Function Attrs: null_pointer_is_valid
declare dso_local i64 @__get_free_pages(i32 noundef, i32 noundef) local_unnamed_addr #2

; Function Attrs: fn_ret_thunk_extern nounwind null_pointer_is_valid
define dso_local void @xfrm_hash_free(ptr noundef %0, i32 noundef %1) local_unnamed_addr #0 align 16 {
  %3 = zext i32 %1 to i64
  %4 = icmp ult i32 %1, 4097
  br i1 %4, label %5, label %6

5:                                                ; preds = %2
  tail call void @kfree(ptr noundef %0) #5
  br label %16

6:                                                ; preds = %2
  %7 = load i32, ptr @hashdist, align 4
  %8 = icmp eq i32 %7, 0
  br i1 %8, label %10, label %9

9:                                                ; preds = %6
  tail call void @vfree(ptr noundef %0) #5
  br label %16

10:                                               ; preds = %6
  %11 = ptrtoint ptr %0 to i64
  %12 = add nsw i64 %3, -1
  %13 = lshr i64 %12, 12
  %14 = tail call i32 asm "bsrq $1,${0:q}", "=r,rm,0,~{dirflag},~{fpsr},~{flags}"(i64 %13, i32 -1) #4, !srcloc !5
  %15 = add i32 %14, 1
  tail call void @free_pages(i64 noundef %11, i32 noundef %15) #5
  br label %16

16:                                               ; preds = %10, %9, %5
  ret void
}

; Function Attrs: null_pointer_is_valid
declare dso_local void @kfree(ptr noundef) local_unnamed_addr #2

; Function Attrs: null_pointer_is_valid
declare dso_local void @vfree(ptr noundef) local_unnamed_addr #2

; Function Attrs: null_pointer_is_valid
declare dso_local void @free_pages(i64 noundef, i32 noundef) local_unnamed_addr #2

; Function Attrs: null_pointer_is_valid allocsize(0)
declare dso_local noalias ptr @__kmalloc(i64 noundef, i32 noundef) local_unnamed_addr #1


!llvm.module.flags = !{!0, !1, !2, !3, !4}

!0 = !{i32 1, !"wchar_size", i32 2}
!1 = !{i32 8, !"cf-protection-branch", i32 1}
!2 = !{i32 4, !"function_return_thunk_extern", i32 1}
!3 = !{i32 4, !"indirect_branch_cs_prefix", i32 1}
!4 = !{i32 4, !"SkipRaxSetup", i32 1}
!5 = !{i64 296694}
